; Function Attrs: nounwind uwtable
define dso_local noundef ptr @data_move(ptr noundef %0, ptr noundef %1) local_unnamed_addr #0 {
  %.not = icmp eq ptr %1, null
  br i1 %.not, label %26, label %3

3:                                                ; preds = %2
  %.not16 = icmp eq ptr %0, null
  br i1 %.not16, label %4, label %data_new.exit

4:                                                ; preds = %3
  %5 = tail call ptr @slurm_xcalloc(i64 noundef 1, i64 noundef 16, i1 noundef zeroext true, i1 noundef zeroext false, ptr noundef nonnull @.str, i32 noundef 389, ptr noundef nonnull @__func__.data_new) #16
  store i32 429004959, ptr %5, align 8
  %6 = getelementptr inbounds nuw i8, ptr %5, i64 4
  store i32 65281, ptr %6, align 4
  %7 = load i64, ptr getelementptr inbounds nuw (i8, ptr @slurm_conf, i64 320), align 8
  %8 = and i64 %7, 256
  %.not.i = icmp eq i64 %8, 0
  br i1 %.not.i, label %data_new.exit, label %9

9:                                                ; preds = %4
  %10 = tail call i32 @get_log_level() #16
  %11 = icmp sgt i32 %10, 3
  br i1 %11, label %12, label %data_new.exit

12:                                               ; preds = %9
  tail call void (i32, ptr, ...) @log_var(i32 noundef 4, ptr noundef nonnull @.str.1, ptr noundef nonnull @__func__.data_new, ptr noundef nonnull %5) #16
  br label %data_new.exit

data_new.exit:                                    ; preds = %12, %9, %4, %3
  %.013 = phi ptr [ %0, %3 ], [ %5, %4 ], [ %5, %9 ], [ %5, %12 ]
  %13 = load i64, ptr getelementptr inbounds nuw (i8, ptr @slurm_conf, i64 320), align 8
  %14 = and i64 %13, 256
  %.not17 = icmp eq i64 %14, 0
  br i1 %.not17, label %19, label %15

15:                                               ; preds = %data_new.exit
  %16 = tail call i32 @get_log_level() #16
  %17 = icmp sgt i32 %16, 3
  br i1 %17, label %18, label %19

18:                                               ; preds = %15
  tail call void (i32, ptr, ...) @log_var(i32 noundef 4, ptr noundef nonnull @.str.58, ptr noundef nonnull @__func__.data_move, ptr noundef nonnull %1, ptr noundef nonnull %.013) #16
  br label %19

19:                                               ; preds = %data_new.exit, %15, %18
  %20 = getelementptr inbounds nuw i8, ptr %.013, i64 8
  %21 = getelementptr inbounds nuw i8, ptr %1, i64 8
  %22 = load i64, ptr %21, align 8
  store i64 %22, ptr %20, align 8
  %23 = getelementptr inbounds nuw i8, ptr %1, i64 4
  %24 = load i32, ptr %23, align 4
  %25 = getelementptr inbounds nuw i8, ptr %.013, i64 4
  store i32 %24, ptr %25, align 4
  store i32 65281, ptr %23, align 4
  br label %26

26:                                               ; preds = %2, %19
  %.0 = phi ptr [ %.013, %19 ], [ null, %2 ]
  ret ptr %.0
}